target datalayout = "e-m:e-p270:32:32-p271:32:32-p272:64:64-i64:64-i128:128-f80:128-n8:16:32:64-S128"
target triple = "x86_64-pc-linux-gnu"

%struct.sbg_script = type { ptr, ptr, ptr, ptr, ptr, i32, i32, i32, i32, i64, i64, i64, i64, ptr, i32, i8, i8 }

; Function Attrs: nounwind uwtable
define internal void @free_script(ptr noundef %0) #1 {
  %2 = alloca ptr, align 8
  store ptr %0, ptr %2, align 8, !tbaa !105
  %3 = load ptr, ptr %2, align 8, !tbaa !105
  %4 = getelementptr inbounds nuw %struct.sbg_script, ptr %3, i32 0, i32 0
  call void @av_freep(ptr noundef %4)
  %5 = load ptr, ptr %2, align 8, !tbaa !105
  %6 = getelementptr inbounds nuw %struct.sbg_script, ptr %5, i32 0, i32 1
  call void @av_freep(ptr noundef %6)
  %7 = load ptr, ptr %2, align 8, !tbaa !105
  %8 = getelementptr inbounds nuw %struct.sbg_script, ptr %7, i32 0, i32 2
  call void @av_freep(ptr noundef %8)
  %9 = load ptr, ptr %2, align 8, !tbaa !105
  %10 = getelementptr inbounds nuw %struct.sbg_script, ptr %9, i32 0, i32 3
  call void @av_freep(ptr noundef %10)
  %11 = load ptr, ptr %2, align 8, !tbaa !105
  %12 = getelementptr inbounds nuw %struct.sbg_script, ptr %11, i32 0, i32 4
  call void @av_freep(ptr noundef %12)
  %13 = load ptr, ptr %2, align 8, !tbaa !105
  %14 = getelementptr inbounds nuw %struct.sbg_script, ptr %13, i32 0, i32 13
  call void @av_freep(ptr noundef %14)
  ret void
}