; Function Attrs: nounwind uwtable
define internal fastcc void @free_script(ptr noundef nonnull %0) unnamed_addr #1 {
  tail call void @av_freep(ptr noundef nonnull %0) #16
  %2 = getelementptr inbounds nuw i8, ptr %0, i64 8
  tail call void @av_freep(ptr noundef nonnull %2) #16
  %3 = getelementptr inbounds nuw i8, ptr %0, i64 16
  tail call void @av_freep(ptr noundef nonnull %3) #16
  %4 = getelementptr inbounds nuw i8, ptr %0, i64 24
  tail call void @av_freep(ptr noundef nonnull %4) #16
  %5 = getelementptr inbounds nuw i8, ptr %0, i64 32
  tail call void @av_freep(ptr noundef nonnull %5) #16
  %6 = getelementptr inbounds nuw i8, ptr %0, i64 88
  tail call void @av_freep(ptr noundef nonnull %6) #16
  ret void
}